(lp0
S'joanna angel'
p1
aS'yurizan beltran'
p2
aS'jayden jaymes'
p3
aS'mia lelani'
p4
aS'sara jay'
p5
aS'tory lane'
p6
aS'audrey hollander'
p7
aS'cosette ibarra misty stone'
p8
aS'eva karera'
p9
aS'veronica avluv'
p10
aS'savannah'
p11
aS'tasha reign'
p12
aS'abbey brooks'
p13
aS'ashley fires'
p14
aS'jenna presley'
p15
aS'jayda stevens'
p16
aS'zafira'
p17
aS'chastity lynn'
p18
aS'phoenix marie'
p19
aS'faye reagan'
p20
aS'jenna haze'
p21
aS'katja kassin'
p22
aS'penny paxjessica jaymes'
p23
aS'gianna michaels'
p24
aS'dani jensen'
p25
aS'allie haze  samantha saint'
p26
aS'eva angelina'
p27
aS'alexa nicole'
p28
aS'ivana sugar sylvia saint'
p29
aS'ava devine'
p30
aS'gracie glam'
p31
aS'kristina rose'
p32
aS'lea lexis'
p33
aS'krystal steal'
p34
aS'remy lacroix'
p35
aS'jennifer white'
p36
aS'franceska jaimes'
p37
aS'jesse jane'
p38
aS'blue angel'
p39
aS'devon lee'
p40
aS'sean michaels'
p41
aS'nacho vidal'
p42
aS'charley chase'
p43
aS'diamond kitty'
p44
aS'natasha nice'
p45
aS'annie cruz'
p46
aS'eva notty'
p47
aS'madelyn monroe'
p48
aS'tiffany doll'
p49
aS'janet mason'
p50
aS'lexi belle'
p51
aS'amirah adara'
p52
aS'nikki benz'
p53
aS'lola foxx'
p54
aS'eve angel'
p55
aS'samantha ryan'
p56
aS'hillary scott'
p57
aS'jada fire'
p58
aS'nina hartley'
p59
aS'aoi'
p60
aS'isis love'
p61
aS'ashli orion'
p62
aS'julia ann'
p63
aS'vicki chase'
p64
aS'holly michaels'
p65
aS'cytherea'
p66
aS'nicole aniston'
p67
aS'anikka albrite'
p68
aS'sandra romain'
p69
aS'amy brooke'
p70
aS'peaches'
p71
aS'sunny leone'
p72
aS'julia reaves'
p73
aS'vanessa cage'
p74
aS'ash hollywood'
p75
aS'rebeca linares'
p76
aS'aleksa diamond'
p77
aS'ariella ferrera'
p78
aS'nicky angel'
p79
aS'ashley adams'
p80
aS'alison tyler'
p81
aS'amber rayne'
p82
aS'mercedes lynn'
p83
aS'tori black'
p84
aS'trina michaels'
p85
aS'madison ivy'
p86
aS'cherry jul'
p87
aS'nikita von james'
p88
aS'india summer'
p89
aS'holly heart'
p90
aS'ava addams'
p91
aS'dylan ryder'
p92
aS'syren de mar'
p93
aS'jewels jade'
p94
aS'marie mccray'
p95
aS'anita blue'
p96
aS'eufrat'
p97
aS'lexington steele'
p98
aS'tarra white'
p99
aS'bobbi starr'
p100
aS'nikki sexx'
p101
aS'aaliyah love'
p102
aS'alexis fawx'
p103
aS'cindy hope'
p104
aS'aletta ocean'
p105
aS'dana dearmond'
p106
aS'chanel preston'
p107
aS'jennifer dark'
p108
aS'valentina nappi'
p109
aS'veronica rodriguez'
p110
aS'sammie rhodes'
p111
aS'kathia nobili'
p112
aS'taylor vixen'
p113
aS'shyla stylez'
p114
aS'lily labeau'
p115
aS'rachel starr'
p116
aS'ron jeremy'
p117
aS'lelu love'
p118
aS'rachel roxxx'
p119
aS'jynx maze'
p120
aS'sativa rose'
p121
aS'peter north'
p122
aS'kagney linn karter'
p123
aS'anissa kate'
p124
aS'london keyes'
p125
aS'liza del sierra'
p126
aS'karlie montana'
p127
aS'alanah rae'
p128
aS'manuel ferrara'
p129
aS'jessie volt'
p130
aS'dana vespoli'
p131
aS'christy mack'
p132
aS'dillion harper'
p133
aS'juelz ventura'
p134
aS'kendra lust'
p135
aS'tanya tate'
p136
aS'lisa ann'
p137
aS'samantha bentley'
p138
aS'courtney cummz'
p139
aS'kortney kane'
p140
aS'diamond foxxx'
p141
aS'sophie dee'
p142
aS'raylene'
p143
aS'angelina valentine'
p144
aS'daisy dukes'
p145
aS'riley reid'
p146
aS'francesca le'
p147
aS'temptress'
p148
aS'asa akira'
p149
aS'kelly divine'
p150
aS'puma swede'
p151
aS'krissy lynn'
p152
aS'bree olson'
p153
aS'mika tan'
p154
aS'sarah vandella'
p155
aS'gabriella paltrova'
p156
aS'audrey bitoni'
p157
aS'jessica bangkok'
p158
aS'sienna west'
p159
aS'celeste star'
p160
aS'brandi love'
p161
aS'aiden starr'
p162
aS'bonnie rotten'
p163
aS'sasha grey'
p164
aS'mea melone'
p165
aS'monique alexander'
p166
aS'alexis texas'
p167
aS'richelle ryan'
p168
aS'rayveness'
p169
aS'rocco siffredi'
p170
aS'alektra blue'
p171
aS'claudia valentine'
p172
aS'capri cavalli'
p173
aS'christie stevens'
p174
aS'britney amber'
p175
aS'katsuni'
p176
a.